(dp0
S'ROMFS_FILES'
p1
(lp2
(S'hwdef.dat'
p3
S'/home/tung/ardupilot/build/Pixracer_clone/hw.dat'
p4
tp5
a(S'bootloader.bin'
p6
S'/home/tung/ardupilot/Tools/bootloaders/Pixracer_clone_bl.bin'
p7
tp8
asS'HAL_NUM_CAN_IFACES'
p9
S'1'
p10
sS'MAIN_STACK'
p11
S'0x400'
p12
sS'APJ_BOARD_TYPE'
p13
S'STM32F427xx'
p14
sS'PERIPH_FW'
p15
I0
sS'USBID'
p16
S'0x1209/0x5741'
p17
sS'BOARD_FLASH_SIZE'
p18
I2048
sS'APJ_BOARD_ID'
p19
S'11'
p20
sS'CORTEX'
p21
S'cortex-m4'
p22
sS'FLASH_TOTAL'
p23
I2080768
sS'FLASH_RESERVE_START_KB'
p24
S'16'
p25
sS'CHIBIOS_BUILD_FLAGS'
p26
S'USE_FATFS=yes MCU=cortex-m4 ENV_UDEFS=-DCHPRINTF_USE_FLOAT=1 CHIBIOS_PLATFORM_MK=os/hal/ports/STM32/STM32F4xx/platform.mk CHIBIOS_STARTUP_MK=os/common/startup/ARMCMx/compilers/GCC/mk/startup_stm32f4xx.mk'
p27
sS'CPU_FLAGS'
p28
(lp29
S'-mcpu=cortex-m4'
p30
aS'-mfpu=fpv4-sp-d16'
p31
aS'-mfloat-abi=hard'
p32
aS'-DARM_MATH_CM4'
p33
aS'-u_printf_float'
p34
asS'OPTIMIZE'
p35
S'-O2'
p36
sS'IOMCU_FW'
p37
I0
sS'PROCESS_STACK'
p38
S'0x2000'
p39
s.